; Function Attrs: mustprogress uwtable
define void @_ZN7rocksdb3Env17GetHostNameStringEPNSt7__cxx1112basic_stringIcSt11char_traitsIcESaIcEEE(ptr dead_on_unwind noalias writable sret(%"class.rocksdb::Status") align 8 %0, ptr noundef nonnull align 8 dereferenceable(72) %1, ptr noundef %2) unnamed_addr #4 align 2 personality ptr @__gxx_personality_v0 {
  %4 = alloca %"struct.std::array", align 1
  call void @llvm.lifetime.start.p0(i64 256, ptr nonnull %4) #37
  call void @llvm.memset.p0.i64(ptr noundef nonnull align 1 dereferenceable(256) %4, i8 0, i64 256, i1 false)
  %5 = load ptr, ptr %1, align 8, !tbaa !18
  %6 = getelementptr inbounds nuw i8, ptr %5, i64 472
  %7 = load ptr, ptr %6, align 8
  call void %7(ptr dead_on_unwind writable sret(%"class.rocksdb::Status") align 8 %0, ptr noundef nonnull align 8 dereferenceable(72) %1, ptr noundef nonnull %4, i64 noundef 256)
  %8 = load i8, ptr %0, align 8, !tbaa !103
  %9 = icmp eq i8 %8, 0
  br i1 %9, label %10, label %_ZNSt7__cxx1112basic_stringIcSt11char_traitsIcESaIcEE6assignEPKc.exit

10:                                               ; preds = %3
  %11 = getelementptr inbounds nuw i8, ptr %4, i64 255
  store i8 0, ptr %11, align 1, !tbaa !17
  %12 = getelementptr inbounds nuw i8, ptr %2, i64 8
  %13 = load i64, ptr %12, align 8, !tbaa !16
  %14 = call noundef i64 @strlen(ptr noundef nonnull dereferenceable(1) %4) #37
  %15 = invoke noundef nonnull align 8 dereferenceable(32) ptr @_ZNSt7__cxx1112basic_stringIcSt11char_traitsIcESaIcEE10_M_replaceEmmPKcm(ptr noundef nonnull align 8 dereferenceable(32) %2, i64 noundef 0, i64 noundef %13, ptr noundef nonnull %4, i64 noundef %14)
          to label %_ZNSt7__cxx1112basic_stringIcSt11char_traitsIcESaIcEE6assignEPKc.exit unwind label %16

16:                                               ; preds = %10
  %17 = landingpad { ptr, i32 }
          cleanup
  %18 = getelementptr inbounds nuw i8, ptr %0, i64 8
  %19 = load ptr, ptr %18, align 8, !tbaa !121
  %.not.i.i = icmp eq ptr %19, null
  br i1 %.not.i.i, label %_ZN7rocksdb6StatusD2Ev.exit, label %_ZNKSt14default_deleteIA_KcEclIS0_EENSt9enable_ifIXsr14is_convertibleIPA_T_PS1_EE5valueEvE4typeEPS5_.exit.i.i

_ZNKSt14default_deleteIA_KcEclIS0_EENSt9enable_ifIXsr14is_convertibleIPA_T_PS1_EE5valueEvE4typeEPS5_.exit.i.i: ; preds = %16
  call void @_ZdaPv(ptr noundef nonnull %19) #35
  br label %_ZN7rocksdb6StatusD2Ev.exit

_ZN7rocksdb6StatusD2Ev.exit:                      ; preds = %16, %_ZNKSt14default_deleteIA_KcEclIS0_EENSt9enable_ifIXsr14is_convertibleIPA_T_PS1_EE5valueEvE4typeEPS5_.exit.i.i
  store ptr null, ptr %18, align 8, !tbaa !121
  call void @llvm.lifetime.end.p0(i64 256, ptr nonnull %4) #37
  resume { ptr, i32 } %17

_ZNSt7__cxx1112basic_stringIcSt11char_traitsIcESaIcEE6assignEPKc.exit: ; preds = %10, %3
  call void @llvm.lifetime.end.p0(i64 256, ptr nonnull %4) #37
  ret void
}